target datalayout = "e-m:e-p270:32:32-p271:32:32-p272:64:64-i64:64-i128:128-f80:128-n8:16:32:64-S128"
target triple = "x86_64-unknown-linux-gnu"

%"class.icu_75::TZDBNames" = type <{ ptr, ptr, ptr, i32, [4 x i8] }>

; Function Attrs: mustprogress nounwind uwtable
define noundef ptr @_ZNK6icu_759TZDBNames7getNameE17UTimeZoneNameType(ptr noundef nonnull align 8 dereferenceable(28) %this, i32 noundef %type) #0 align 2 {
entry:
  %retval = alloca ptr, align 8
  %this.addr = alloca ptr, align 8
  %type.addr = alloca i32, align 4
  %name = alloca ptr, align 8
  store ptr %this, ptr %this.addr, align 8
  store i32 %type, ptr %type.addr, align 4
  %this1 = load ptr, ptr %this.addr, align 8
  %fNames = getelementptr inbounds %"class.icu_75::TZDBNames", ptr %this1, i32 0, i32 1
  %0 = load ptr, ptr %fNames, align 8
  %cmp = icmp eq ptr %0, null
  br i1 %cmp, label %if.then, label %if.end

if.then:                                          ; preds = %entry
  store ptr null, ptr %retval, align 8
  br label %return

if.end:                                           ; preds = %entry
  store ptr null, ptr %name, align 8
  %1 = load i32, ptr %type.addr, align 4
  switch i32 %1, label %sw.default [
    i32 16, label %sw.bb
    i32 32, label %sw.bb3
  ]

sw.bb:                                            ; preds = %if.end
  %fNames2 = getelementptr inbounds %"class.icu_75::TZDBNames", ptr %this1, i32 0, i32 1
  %2 = load ptr, ptr %fNames2, align 8
  %arrayidx = getelementptr inbounds ptr, ptr %2, i64 0
  %3 = load ptr, ptr %arrayidx, align 8
  store ptr %3, ptr %name, align 8
  br label %sw.epilog

sw.bb3:                                           ; preds = %if.end
  %fNames4 = getelementptr inbounds %"class.icu_75::TZDBNames", ptr %this1, i32 0, i32 1
  %4 = load ptr, ptr %fNames4, align 8
  %arrayidx5 = getelementptr inbounds ptr, ptr %4, i64 1
  %5 = load ptr, ptr %arrayidx5, align 8
  store ptr %5, ptr %name, align 8
  br label %sw.epilog

sw.default:                                       ; preds = %if.end
  store ptr null, ptr %name, align 8
  br label %sw.epilog

sw.epilog:                                        ; preds = %sw.default, %sw.bb3, %sw.bb
  %6 = load ptr, ptr %name, align 8
  store ptr %6, ptr %retval, align 8
  br label %return

return:                                           ; preds = %sw.epilog, %if.then
  %7 = load ptr, ptr %retval, align 8
  ret ptr %7
}