; Function Attrs: mustprogress nofree norecurse nosync nounwind willreturn memory(read, inaccessiblemem: none) uwtable
define noundef ptr @_ZNK6icu_759TZDBNames7getNameE17UTimeZoneNameType(ptr nocapture noundef nonnull readonly align 8 dereferenceable(28) %this, i32 noundef %type) local_unnamed_addr #13 align 2 {
entry:
  %fNames = getelementptr inbounds i8, ptr %this, i64 8
  %0 = load ptr, ptr %fNames, align 8
  %cmp = icmp eq ptr %0, null
  br i1 %cmp, label %return, label %if.end

if.end:                                           ; preds = %entry
  switch i32 %type, label %return [
    i32 16, label %return.sink.split
    i32 32, label %sw.bb3
  ]

sw.bb3:                                           ; preds = %if.end
  %arrayidx5 = getelementptr inbounds i8, ptr %0, i64 8
  br label %return.sink.split

return.sink.split:                                ; preds = %if.end, %sw.bb3
  %.sink = phi ptr [ %arrayidx5, %sw.bb3 ], [ %0, %if.end ]
  %1 = load ptr, ptr %.sink, align 8
  br label %return

return:                                           ; preds = %return.sink.split, %if.end, %entry
  %retval.0 = phi ptr [ null, %entry ], [ null, %if.end ], [ %1, %return.sink.split ]
  ret ptr %retval.0
}